; Function Attrs: mustprogress nounwind uwtable
define dso_local noundef zeroext i1 @_ZN4llvm8LLParser12parseMDTupleERPNS_6MDNodeEb(ptr noundef nonnull align 8 dereferenceable(1768) %0, ptr nocapture noundef nonnull writeonly align 8 dereferenceable(8) %1, i1 noundef zeroext %2) local_unnamed_addr #0 align 2 {
  %4 = alloca %"class.llvm::SmallVector.557", align 8
  %5 = getelementptr inbounds i8, ptr %4, i64 16
  call void @_ZN4llvm15SmallVectorBaseIjEC2EPvm(ptr noundef nonnull align 8 dereferenceable(16) %4, ptr noundef nonnull %5, i64 noundef 16) #25
  %6 = call noundef zeroext i1 @_ZN4llvm8LLParser17parseMDNodeVectorERNS_15SmallVectorImplIPNS_8MetadataEEE(ptr noundef nonnull align 8 dereferenceable(1768) %0, ptr noundef nonnull align 8 dereferenceable(16) %4)
  br i1 %6, label %12, label %7

7:                                                ; preds = %3
  %_ZN4llvm7MDTuple11getDistinctERNS_11LLVMContextENS_8ArrayRefIPNS_8MetadataEEE._ZN4llvm7MDTuple3getERNS_11LLVMContextENS_8ArrayRefIPNS_8MetadataEEE = select i1 %2, ptr @_ZN4llvm7MDTuple11getDistinctERNS_11LLVMContextENS_8ArrayRefIPNS_8MetadataEEE, ptr @_ZN4llvm7MDTuple3getERNS_11LLVMContextENS_8ArrayRefIPNS_8MetadataEEE
  %8 = load ptr, ptr %0, align 8
  %9 = load ptr, ptr %4, align 8
  %10 = call noundef i64 @_ZNK4llvm15SmallVectorBaseIjE4sizeEv(ptr noundef nonnull align 8 dereferenceable(16) %4) #25
  %11 = call noundef ptr %_ZN4llvm7MDTuple11getDistinctERNS_11LLVMContextENS_8ArrayRefIPNS_8MetadataEEE._ZN4llvm7MDTuple3getERNS_11LLVMContextENS_8ArrayRefIPNS_8MetadataEEE(ptr noundef nonnull align 8 dereferenceable(8) %8, ptr %9, i64 %10) #25, !callees !160
  store ptr %11, ptr %1, align 8
  br label %12

12:                                               ; preds = %3, %7
  %13 = call noundef i64 @_ZNK4llvm15SmallVectorBaseIjE4sizeEv(ptr noundef nonnull align 8 dereferenceable(16) %4) #25
  %14 = load ptr, ptr %4, align 8
  %15 = icmp eq ptr %14, %5
  br i1 %15, label %_ZN4llvm11SmallVectorIPNS_8MetadataELj16EED2Ev.exit, label %16

16:                                               ; preds = %12
  call void @free(ptr noundef %14) #25
  br label %_ZN4llvm11SmallVectorIPNS_8MetadataELj16EED2Ev.exit

_ZN4llvm11SmallVectorIPNS_8MetadataELj16EED2Ev.exit: ; preds = %12, %16
  ret i1 %6
}